Certificate:
    Data:
        Version: 3 (0x2)
        Serial Number: 1044 (0x414)
    Signature Algorithm: sha256WithRSAEncryption
        Issuer: C=US, ST=CO, O=CA3, OU=Infosec, CN=ca3.nothing.org/emailAddress=joe@ca3.nothing.org
        Validity
            Not Before: Sep  8 14:01:23 2016 GMT
            Not After : Sep  6 14:01:23 2026 GMT
        Subject: C=US, ST=CO, O=CA4, OU=Infosec, CN=ca4.nothing.org/emailAddress=joe@ca4.nothing.org
        Subject Public Key Info:
            Public Key Algorithm: rsaEncryption
                Public-Key: (2048 bit)
                Modulus:
                    00:c9:51:2b:8c:1e:1e:f6:11:fe:ba:df:c3:12:b1:
                    92:72:cc:3e:7d:87:ab:99:59:b0:8a:86:e6:20:e3:
                    66:05:a7:41:fe:3a:d1:3b:51:77:66:a7:ea:3e:73:
                    f1:cc:a8:d5:bd:ef:01:f0:5e:d9:99:d0:1d:0b:93:
                    2c:4d:9e:94:b0:5a:e2:17:c4:25:48:24:0d:a5:75:
                    e5:d7:76:b9:13:37:9b:7b:b4:ec:09:54:08:77:d3:
                    54:ed:2e:ab:30:89:b6:a3:ca:21:2e:25:aa:26:45:
                    e1:17:20:6e:d7:4e:26:39:33:8a:8c:7b:99:85:86:
                    40:4b:fe:ea:bf:4e:d6:e8:e6:33:8f:5b:1a:d3:25:
                    4d:88:c1:c3:c3:e9:7c:b5:04:a5:74:7c:7e:8a:91:
                    0a:32:a4:55:62:b7:18:4a:19:5f:cd:a9:7b:ce:24:
                    f8:d1:30:84:bb:44:e6:35:79:72:27:90:41:6b:1d:
                    8b:60:6a:91:59:63:8d:c2:b7:8c:de:b6:16:1a:e9:
                    a1:35:ba:5e:d7:52:62:9b:5a:57:0a:3f:6a:fe:a3:
                    7c:2a:ee:21:a2:8a:25:c2:b2:f1:1b:2d:c9:20:c3:
                    89:df:d9:a0:1e:df:1d:20:cd:48:87:29:bc:8c:9e:
                    2e:84:02:43:cb:ea:63:8e:86:24:eb:89:4c:a0:0e:
                    76:09
                Exponent: 65537 (0x10001)
        X509v3 extensions:
            X509v3 Subject Key Identifier: 
                8B:85:F0:DA:DE:B4:A6:E4:DD:93:12:80:38:D0:D4:A9:6B:C8:D1:1F
            X509v3 Authority Key Identifier: 
                keyid:E6:CA:1B:61:2F:36:DF:AF:51:1F:F7:1D:A3:88:D3:48:07:05:D1:D7

            X509v3 Basic Constraints: 
                CA:TRUE
    Signature Algorithm: sha256WithRSAEncryption
         b7:32:02:94:2a:76:77:f8:06:60:48:f8:11:ab:af:92:29:24:
         e0:88:65:ad:a2:7e:49:c3:60:90:b5:a0:e3:7c:ee:28:e0:2c:
         d6:a4:97:cf:5b:42:6a:89:64:91:a8:7d:6a:1f:7a:3e:55:7a:
         25:a8:7e:6c:86:57:10:88:32:40:48:13:c6:6a:23:75:88:14:
         ad:ee:76:07:69:f9:2f:92:7f:be:bd:7b:72:69:5f:8a:03:8c:
         6d:b1:d5:f9:3c:3d:29:06:5b:46:86:18:31:b1:33:cd:2c:f5:
         30:21:ff:81:62:6f:51:bd:6c:31:41:07:3a:b1:19:de:a9:fb:
         f3:64:35:52:71:4f:15:59:64:d7:55:b0:40:e5:fb:20:12:e4:
         4f:ff:a6:32:cf:9d:8c:4f:bf:b0:54:25:31:b9:50:e6:db:3e:
         9a:2c:e1:a0:8e:42:93:b5:de:98:a6:6e:9b:ab:2c:2b:e7:ed:
         1d:ea:e7:18:2c:1e:1b:42:b4:34:70:08:d5:1d:44:68:eb:40:
         a4:a4:92:56:ac:28:fa:92:9e:66:45:2a:60:db:97:d0:0f:3a:
         6a:7b:1f:7e:26:e5:bb:fb:2d:b2:4e:43:e6:39:3b:10:8d:12:
         5d:5f:97:3e:5a:41:95:40:eb:ab:82:8f:29:6d:d0:f1:0d:02:
         83:09:88:9d
-----BEGIN CERTIFICATE-----
MIIDvDCCAqSgAwIBAgICBBQwDQYJKoZIhvcNAQELBQAweDELMAkGA1UEBhMCVVMx
CzAJBgNVBAgMAkNPMQwwCgYDVQQKDANDQTMxEDAOBgNVBAsMB0luZm9zZWMxGDAW
BgNVBAMMD2NhMy5ub3RoaW5nLm9yZzEiMCAGCSqGSIb3DQEJARYTam9lQGNhMy5u
b3RoaW5nLm9yZzAeFw0xNjA5MDgxNDAxMjNaFw0yNjA5MDYxNDAxMjNaMHgxCzAJ
BgNVBAYTAlVTMQswCQYDVQQIDAJDTzEMMAoGA1UECgwDQ0E0MRAwDgYDVQQLDAdJ
bmZvc2VjMRgwFgYDVQQDDA9jYTQubm90aGluZy5vcmcxIjAgBgkqhkiG9w0BCQEW
E2pvZUBjYTQubm90aGluZy5vcmcwggEiMA0GCSqGSIb3DQEBAQUAA4IBDwAwggEK
AoIBAQDJUSuMHh72Ef6638MSsZJyzD59h6uZWbCKhuYg42YFp0H+OtE7UXdmp+o+
c/HMqNW97wHwXtmZ0B0LkyxNnpSwWuIXxCVIJA2ldeXXdrkTN5t7tOwJVAh301Tt
LqswibajyiEuJaomReEXIG7XTiY5M4qMe5mFhkBL/uq/Ttbo5jOPWxrTJU2IwcPD
6Xy1BKV0fH6KkQoypFVitxhKGV/NqXvOJPjRMIS7ROY1eXInkEFrHYtgapFZY43C
t4zethYa6aE1ul7XUmKbWlcKP2r+o3wq7iGiiiXCsvEbLckgw4nf2aAe3x0gzUiH
KbyMni6EAkPL6mOOhiTriUygDnYJAgMBAAGjUDBOMB0GA1UdDgQWBBSLhfDa3rSm
5N2TEoA40NSpa8jRHzAfBgNVHSMEGDAWgBTmyhthLzbfr1Ef9x2jiNNIBwXR1zAM
BgNVHRMEBTADAQH/MA0GCSqGSIb3DQEBCwUAA4IBAQC3MgKUKnZ3+AZgSPgRq6+S
KSTgiGWton5Jw2CQtaDjfO4o4CzWpJfPW0JqiWSRqH1qH3o+VXolqH5shlcQiDJA
SBPGaiN1iBSt7nYHafkvkn++vXtyaV+KA4xtsdX5PD0pBltGhhgxsTPNLPUwIf+B
Ym9RvWwxQQc6sRneqfvzZDVScU8VWWTXVbBA5fsgEuRP/6Yyz52MT7+wVCUxuVDm
2z6aLOGgjkKTtd6Ypm6bqywr5+0d6ucYLB4bQrQ0cAjVHURo60CkpJJWrCj6kp5m
RSpg25fQDzpqex9+JuW7+y2yTkPmOTsQjRJdX5c+WkGVQOurgo8pbdDxDQKDCYid
-----END CERTIFICATE-----
