Certificate:
    Data:
        Version: 3 (0x2)
        Serial Number: 1047 (0x417)
    Signature Algorithm: sha256WithRSAEncryption
        Issuer: C=US, ST=CO, O=CA6, OU=Infosec, CN=ca6.nothing.org/emailAddress=joe@ca6.nothing.org
        Validity
            Not Before: Sep  8 14:02:50 2016 GMT
            Not After : Sep  6 14:02:50 2026 GMT
        Subject: C=US, ST=CO, O=CA7, OU=Infosec, CN=ca7.nothing.org/emailAddress=joe@ca7.nothing.org
        Subject Public Key Info:
            Public Key Algorithm: rsaEncryption
                Public-Key: (2048 bit)
                Modulus:
                    00:d7:2d:d0:b4:f3:37:9d:36:93:14:1e:b1:eb:64:
                    c6:24:16:8d:0d:d3:d4:b2:3c:18:45:06:90:da:09:
                    e8:ab:3c:79:f1:bd:b5:78:74:e2:bf:fb:fc:23:57:
                    7b:de:60:22:8c:45:a2:d2:ba:34:27:6c:2d:8e:da:
                    f8:7b:c2:a5:91:5f:b3:8b:b6:a2:32:c7:22:ea:f8:
                    09:6d:24:1b:a8:d3:de:cb:d3:41:83:25:6d:cb:55:
                    fe:5e:16:26:7b:e9:4f:7e:30:38:13:f9:09:c4:c4:
                    36:dc:b1:c5:2a:03:bf:18:7c:cd:69:0d:4b:68:b1:
                    73:1d:42:11:81:7f:bf:33:75:36:ef:8c:82:09:47:
                    b0:69:7a:53:39:24:cd:d6:5a:95:a5:3c:b3:88:7e:
                    34:9e:55:d8:d5:92:d8:31:4b:a3:ea:51:8b:52:4a:
                    ef:ec:2d:9f:cb:d2:42:f3:0b:3a:bd:75:48:7c:bb:
                    a6:0a:64:43:30:05:57:a5:66:89:e6:35:17:6f:ca:
                    fb:bb:f0:99:2d:62:a1:33:c2:12:8d:90:e3:03:0f:
                    7b:ef:1c:27:e5:b5:6f:b2:6d:62:e5:c9:89:24:86:
                    8e:01:6d:68:41:bf:52:57:75:70:e6:e3:da:4d:5d:
                    83:a8:6b:77:bb:ff:13:1a:e5:62:ad:fd:30:01:42:
                    31:b3
                Exponent: 65537 (0x10001)
        X509v3 extensions:
            X509v3 Subject Key Identifier: 
                40:67:D6:3A:B9:BB:D4:31:11:DD:99:AD:47:00:53:85:89:91:0A:AC
            X509v3 Authority Key Identifier: 
                keyid:10:C0:60:2B:62:97:FF:4A:91:01:1E:3E:DE:35:63:A8:B6:32:51:30

            X509v3 Basic Constraints: 
                CA:TRUE
    Signature Algorithm: sha256WithRSAEncryption
         90:44:4a:ab:cf:aa:58:81:3a:b6:ec:c1:c3:94:da:57:56:90:
         db:75:33:30:cb:4b:60:db:51:0a:a9:33:8f:e7:61:34:f6:e3:
         cb:ac:c1:05:9a:da:3e:79:f1:3f:31:6b:4d:58:d4:64:a1:54:
         c1:74:69:7e:9f:6e:ad:92:46:7f:51:ac:99:52:ac:d7:80:a5:
         c1:51:93:22:b3:81:2e:85:b0:aa:d6:c2:23:1f:24:ca:6c:5b:
         92:a5:0c:70:da:50:01:d7:c9:e1:fa:6b:1c:ab:82:88:d9:73:
         39:fe:dc:1b:9a:75:7c:eb:b2:37:42:2d:36:33:db:11:61:45:
         37:66:38:0b:1a:57:ad:91:b8:9b:bf:ad:9d:39:49:12:c4:30:
         2e:bc:9c:46:87:81:c9:c1:20:ce:3a:62:d4:b5:12:de:12:27:
         8c:6e:30:fc:a9:09:cc:f2:54:cb:95:c1:53:38:3e:a9:a3:a9:
         86:62:ca:7d:7c:a1:7c:18:42:8a:54:cf:a5:46:6b:3c:f2:ab:
         a3:10:af:c1:b2:d4:5d:75:c9:af:f5:f4:99:f7:55:28:bc:b0:
         5b:66:43:bd:a8:65:89:f3:b7:7a:77:bd:92:15:32:6f:91:f2:
         1a:a3:a0:cb:de:47:69:7e:3a:62:8e:d0:31:e0:ac:e9:28:58:
         27:55:6a:90
-----BEGIN CERTIFICATE-----
MIIDvDCCAqSgAwIBAgICBBcwDQYJKoZIhvcNAQELBQAweDELMAkGA1UEBhMCVVMx
CzAJBgNVBAgMAkNPMQwwCgYDVQQKDANDQTYxEDAOBgNVBAsMB0luZm9zZWMxGDAW
BgNVBAMMD2NhNi5ub3RoaW5nLm9yZzEiMCAGCSqGSIb3DQEJARYTam9lQGNhNi5u
b3RoaW5nLm9yZzAeFw0xNjA5MDgxNDAyNTBaFw0yNjA5MDYxNDAyNTBaMHgxCzAJ
BgNVBAYTAlVTMQswCQYDVQQIDAJDTzEMMAoGA1UECgwDQ0E3MRAwDgYDVQQLDAdJ
bmZvc2VjMRgwFgYDVQQDDA9jYTcubm90aGluZy5vcmcxIjAgBgkqhkiG9w0BCQEW
E2pvZUBjYTcubm90aGluZy5vcmcwggEiMA0GCSqGSIb3DQEBAQUAA4IBDwAwggEK
AoIBAQDXLdC08zedNpMUHrHrZMYkFo0N09SyPBhFBpDaCeirPHnxvbV4dOK/+/wj
V3veYCKMRaLSujQnbC2O2vh7wqWRX7OLtqIyxyLq+AltJBuo097L00GDJW3LVf5e
FiZ76U9+MDgT+QnExDbcscUqA78YfM1pDUtosXMdQhGBf78zdTbvjIIJR7BpelM5
JM3WWpWlPLOIfjSeVdjVktgxS6PqUYtSSu/sLZ/L0kLzCzq9dUh8u6YKZEMwBVel
ZonmNRdvyvu78JktYqEzwhKNkOMDD3vvHCfltW+ybWLlyYkkho4BbWhBv1JXdXDm
49pNXYOoa3e7/xMa5WKt/TABQjGzAgMBAAGjUDBOMB0GA1UdDgQWBBRAZ9Y6ubvU
MRHdma1HAFOFiZEKrDAfBgNVHSMEGDAWgBQQwGArYpf/SpEBHj7eNWOotjJRMDAM
BgNVHRMEBTADAQH/MA0GCSqGSIb3DQEBCwUAA4IBAQCQREqrz6pYgTq27MHDlNpX
VpDbdTMwy0tg21EKqTOP52E09uPLrMEFmto+efE/MWtNWNRkoVTBdGl+n26tkkZ/
UayZUqzXgKXBUZMis4EuhbCq1sIjHyTKbFuSpQxw2lAB18nh+mscq4KI2XM5/twb
mnV867I3Qi02M9sRYUU3ZjgLGletkbibv62dOUkSxDAuvJxGh4HJwSDOOmLUtRLe
EieMbjD8qQnM8lTLlcFTOD6po6mGYsp9fKF8GEKKVM+lRms88qujEK/BstRddcmv
9fSZ91UovLBbZkO9qGWJ87d6d72SFTJvkfIao6DL3kdpfjpijtAx4KzpKFgnVWqQ
-----END CERTIFICATE-----
