Certificate:
    Data:
        Version: 3 (0x2)
        Serial Number: 1046 (0x416)
    Signature Algorithm: sha256WithRSAEncryption
        Issuer: C=US, ST=CO, O=CA5, OU=Infosec, CN=ca5.nothing.org/emailAddress=joe@ca5.nothing.org
        Validity
            Not Before: Sep  8 14:02:23 2016 GMT
            Not After : Sep  6 14:02:23 2026 GMT
        Subject: C=US, ST=CO, O=CA6, OU=Infosec, CN=ca6.nothing.org/emailAddress=joe@ca6.nothing.org
        Subject Public Key Info:
            Public Key Algorithm: rsaEncryption
                Public-Key: (2048 bit)
                Modulus:
                    00:be:6a:8c:b4:7e:15:5f:c9:cd:34:38:17:95:ce:
                    87:40:63:23:cc:3a:f3:e7:1c:73:77:5d:0e:56:76:
                    ca:cd:52:70:3d:d1:68:c1:ad:5c:02:03:1d:1d:46:
                    fe:fb:c0:f1:69:97:54:81:00:3c:dd:e6:95:c3:1b:
                    4f:76:84:48:17:9f:7a:90:14:d8:6d:63:c5:51:af:
                    45:81:b6:55:15:90:f4:36:84:3b:0e:79:a6:94:7c:
                    4d:8a:28:02:39:8c:50:df:14:d7:3b:1d:57:9f:77:
                    bb:eb:cc:96:38:ea:ca:3c:23:05:28:2b:a2:df:7e:
                    12:b9:ca:45:64:02:c5:3e:ee:0b:65:0f:1a:a7:4e:
                    19:fd:78:3b:6e:48:5b:2d:13:0f:ff:de:32:0f:a2:
                    12:15:f3:68:f7:8b:2d:8f:05:70:1f:09:b8:1a:02:
                    27:b8:98:7b:ea:1a:dd:ec:fa:f7:b8:19:bc:01:68:
                    8f:6b:1c:d2:e6:fb:0b:87:1c:4a:fa:8f:b9:5d:75:
                    16:eb:b5:28:e8:43:7d:96:97:38:ca:79:e9:fd:f1:
                    30:7b:c7:90:85:65:3d:1f:dd:b4:f7:b0:37:fb:95:
                    85:38:3f:ad:9c:ec:35:5b:dc:5d:05:76:63:59:9e:
                    95:1f:73:c7:85:48:4a:f4:c2:19:77:5a:e2:ff:7c:
                    93:23
                Exponent: 65537 (0x10001)
        X509v3 extensions:
            X509v3 Subject Key Identifier: 
                10:C0:60:2B:62:97:FF:4A:91:01:1E:3E:DE:35:63:A8:B6:32:51:30
            X509v3 Authority Key Identifier: 
                keyid:06:41:71:83:1A:22:56:EE:EE:D3:F4:74:62:5B:1C:3B:B9:2E:02:49

            X509v3 Basic Constraints: 
                CA:TRUE
    Signature Algorithm: sha256WithRSAEncryption
         ab:b9:3b:7e:34:71:ca:71:86:b9:04:54:6e:bc:ef:31:ac:b4:
         73:9c:49:84:8f:ab:4b:13:ea:91:16:c4:1f:4c:56:f0:13:62:
         9a:93:bc:d1:5b:ac:f6:a3:b6:ff:bf:88:75:43:03:3a:5e:55:
         33:55:9d:4f:00:f5:f7:25:d1:b1:93:df:4c:56:40:d9:40:60:
         49:a9:4c:bb:a4:63:23:13:49:3b:b8:8a:a7:81:68:ba:c1:68:
         a7:8e:7a:b8:dd:78:6d:e5:5d:6b:f2:fe:d2:f1:24:28:0c:db:
         55:70:f0:c8:d8:e7:a9:1f:54:45:c5:bc:11:ea:6d:95:6b:f9:
         e8:14:bb:1c:88:b3:5d:41:30:dd:62:12:71:c6:70:f7:06:b1:
         61:9a:ff:e6:11:2a:2b:eb:7a:b4:ae:90:bc:e1:91:0f:23:ff:
         80:b6:31:df:4b:b2:d2:e4:df:25:31:0d:bb:05:1c:f8:10:1b:
         ee:05:67:c8:98:a7:8d:29:1f:51:92:ac:35:02:98:1b:b0:46:
         52:94:a0:e2:cd:3c:21:35:cf:a4:7d:5d:ed:2b:65:9c:bc:e0:
         98:07:58:d7:71:32:3f:b5:d7:a8:6a:0e:5a:9f:61:81:d6:32:
         0c:64:15:b5:7e:cb:de:02:3d:30:c7:40:6d:77:ba:6e:88:db:
         56:97:66:02
-----BEGIN CERTIFICATE-----
MIIDvDCCAqSgAwIBAgICBBYwDQYJKoZIhvcNAQELBQAweDELMAkGA1UEBhMCVVMx
CzAJBgNVBAgMAkNPMQwwCgYDVQQKDANDQTUxEDAOBgNVBAsMB0luZm9zZWMxGDAW
BgNVBAMMD2NhNS5ub3RoaW5nLm9yZzEiMCAGCSqGSIb3DQEJARYTam9lQGNhNS5u
b3RoaW5nLm9yZzAeFw0xNjA5MDgxNDAyMjNaFw0yNjA5MDYxNDAyMjNaMHgxCzAJ
BgNVBAYTAlVTMQswCQYDVQQIDAJDTzEMMAoGA1UECgwDQ0E2MRAwDgYDVQQLDAdJ
bmZvc2VjMRgwFgYDVQQDDA9jYTYubm90aGluZy5vcmcxIjAgBgkqhkiG9w0BCQEW
E2pvZUBjYTYubm90aGluZy5vcmcwggEiMA0GCSqGSIb3DQEBAQUAA4IBDwAwggEK
AoIBAQC+aoy0fhVfyc00OBeVzodAYyPMOvPnHHN3XQ5WdsrNUnA90WjBrVwCAx0d
Rv77wPFpl1SBADzd5pXDG092hEgXn3qQFNhtY8VRr0WBtlUVkPQ2hDsOeaaUfE2K
KAI5jFDfFNc7HVefd7vrzJY46so8IwUoK6LffhK5ykVkAsU+7gtlDxqnThn9eDtu
SFstEw//3jIPohIV82j3iy2PBXAfCbgaAie4mHvqGt3s+ve4GbwBaI9rHNLm+wuH
HEr6j7lddRbrtSjoQ32WlzjKeen98TB7x5CFZT0f3bT3sDf7lYU4P62c7DVb3F0F
dmNZnpUfc8eFSEr0whl3WuL/fJMjAgMBAAGjUDBOMB0GA1UdDgQWBBQQwGArYpf/
SpEBHj7eNWOotjJRMDAfBgNVHSMEGDAWgBQGQXGDGiJW7u7T9HRiWxw7uS4CSTAM
BgNVHRMEBTADAQH/MA0GCSqGSIb3DQEBCwUAA4IBAQCruTt+NHHKcYa5BFRuvO8x
rLRznEmEj6tLE+qRFsQfTFbwE2Kak7zRW6z2o7b/v4h1QwM6XlUzVZ1PAPX3JdGx
k99MVkDZQGBJqUy7pGMjE0k7uIqngWi6wWinjnq43Xht5V1r8v7S8SQoDNtVcPDI
2OepH1RFxbwR6m2Va/noFLsciLNdQTDdYhJxxnD3BrFhmv/mESor63q0rpC84ZEP
I/+AtjHfS7LS5N8lMQ27BRz4EBvuBWfImKeNKR9Rkqw1ApgbsEZSlKDizTwhNc+k
fV3tK2WcvOCYB1jXcTI/tdeoag5an2GB1jIMZBW1fsveAj0wx0Btd7puiNtWl2YC
-----END CERTIFICATE-----
