Certificate:
    Data:
        Version: 3 (0x2)
        Serial Number: 1043 (0x413)
    Signature Algorithm: sha256WithRSAEncryption
        Issuer: C=US, ST=CO, O=CA2, OU=Infosec, CN=ca2.nothing.org/emailAddress=joe@ca2.nothing.org
        Validity
            Not Before: Sep  8 14:00:46 2016 GMT
            Not After : Sep  6 14:00:46 2026 GMT
        Subject: C=US, ST=CO, O=CA3, OU=Infosec, CN=ca3.nothing.org/emailAddress=joe@ca3.nothing.org
        Subject Public Key Info:
            Public Key Algorithm: rsaEncryption
                Public-Key: (2048 bit)
                Modulus:
                    00:ef:e3:a1:53:45:a7:ef:cc:6b:8e:66:93:f0:b7:
                    ae:cc:de:c6:82:79:fa:bc:04:fb:ec:38:7c:57:be:
                    e4:f3:38:ff:da:80:61:f0:d7:04:be:3a:77:97:38:
                    92:d8:a9:8b:e8:c8:de:11:80:2f:22:72:81:b6:97:
                    16:de:b1:ed:4b:ad:60:8c:f9:a2:a3:ac:0f:36:7c:
                    fd:c5:3d:13:3f:a6:52:87:03:8b:21:cf:0d:6b:88:
                    da:ae:b0:d6:9c:4f:74:b7:53:65:f3:c0:b8:bc:91:
                    e9:b7:30:ab:6d:22:ca:ca:7b:4f:0f:a4:e7:b4:36:
                    cf:18:72:62:3b:ce:bd:00:84:df:36:fd:f8:94:c4:
                    d1:aa:2f:d3:0a:7c:4f:6f:da:04:71:ed:db:fa:cd:
                    b7:7b:7d:d9:5a:a1:35:08:9b:af:a2:db:81:86:3b:
                    8b:e4:35:02:a4:93:f7:04:d8:5b:31:b1:63:7f:c9:
                    18:f8:ad:87:63:10:10:57:d2:70:20:62:07:5c:a4:
                    f6:05:ac:06:93:64:45:da:21:64:94:b9:80:29:01:
                    40:a2:b2:06:41:ba:f0:af:09:e0:3f:6c:f5:aa:9f:
                    b5:0c:7c:2d:a7:7a:a3:ff:22:c5:94:d8:9e:ac:74:
                    ee:66:4f:ab:17:0f:8d:8a:35:ba:21:d7:ab:bb:b9:
                    54:19
                Exponent: 65537 (0x10001)
        X509v3 extensions:
            X509v3 Subject Key Identifier: 
                E6:CA:1B:61:2F:36:DF:AF:51:1F:F7:1D:A3:88:D3:48:07:05:D1:D7
            X509v3 Authority Key Identifier: 
                keyid:BF:38:0E:3C:FE:F7:57:57:4F:F4:7F:7C:9D:9E:C6:01:D4:FA:2E:F6

            X509v3 Basic Constraints: 
                CA:TRUE
    Signature Algorithm: sha256WithRSAEncryption
         b2:f1:13:b7:93:3a:26:f4:57:4d:eb:eb:46:d5:fc:16:d4:47:
         11:48:7e:48:6d:5b:9b:3a:6a:8f:03:07:ff:2b:ad:f9:ee:87:
         80:5d:fb:0c:8e:ca:0b:1b:c8:e0:bd:69:70:2d:e5:b4:ea:58:
         ee:72:25:0a:24:fb:41:11:1a:f4:2c:c2:ad:ad:41:aa:9d:cc:
         f1:59:0f:c1:9d:55:da:32:0b:ab:8b:06:9f:cd:e0:d4:3a:1a:
         cd:22:c4:d4:86:88:07:7a:0c:a9:ec:8c:97:d6:2e:ab:07:63:
         93:c3:6a:fb:3d:2e:41:7b:6a:ad:15:74:20:f1:15:c3:05:37:
         2f:50:d1:31:f4:c0:4a:2d:a9:a1:45:f7:b0:32:26:3a:02:6b:
         c0:e6:be:61:a2:c5:b3:07:37:75:6e:fa:87:35:4c:11:a8:63:
         4e:12:e6:c0:e6:d2:86:d9:a8:60:39:a2:05:8a:bc:38:21:72:
         1d:42:90:3f:9c:37:f6:96:b1:14:ff:bc:55:c8:4b:d3:e4:9d:
         64:3e:34:b7:a0:a6:00:13:b3:b8:e5:4e:a0:91:b2:01:29:6d:
         f1:83:8b:5c:68:40:94:f5:cd:90:c3:af:39:5b:25:a6:53:a8:
         18:8a:d7:ca:f3:fe:ad:77:58:ed:ad:80:8b:b8:93:18:53:5b:
         4c:8b:1b:a0
-----BEGIN CERTIFICATE-----
MIIDvDCCAqSgAwIBAgICBBMwDQYJKoZIhvcNAQELBQAweDELMAkGA1UEBhMCVVMx
CzAJBgNVBAgMAkNPMQwwCgYDVQQKDANDQTIxEDAOBgNVBAsMB0luZm9zZWMxGDAW
BgNVBAMMD2NhMi5ub3RoaW5nLm9yZzEiMCAGCSqGSIb3DQEJARYTam9lQGNhMi5u
b3RoaW5nLm9yZzAeFw0xNjA5MDgxNDAwNDZaFw0yNjA5MDYxNDAwNDZaMHgxCzAJ
BgNVBAYTAlVTMQswCQYDVQQIDAJDTzEMMAoGA1UECgwDQ0EzMRAwDgYDVQQLDAdJ
bmZvc2VjMRgwFgYDVQQDDA9jYTMubm90aGluZy5vcmcxIjAgBgkqhkiG9w0BCQEW
E2pvZUBjYTMubm90aGluZy5vcmcwggEiMA0GCSqGSIb3DQEBAQUAA4IBDwAwggEK
AoIBAQDv46FTRafvzGuOZpPwt67M3saCefq8BPvsOHxXvuTzOP/agGHw1wS+OneX
OJLYqYvoyN4RgC8icoG2lxbese1LrWCM+aKjrA82fP3FPRM/plKHA4shzw1riNqu
sNacT3S3U2XzwLi8kem3MKttIsrKe08PpOe0Ns8YcmI7zr0AhN82/fiUxNGqL9MK
fE9v2gRx7dv6zbd7fdlaoTUIm6+i24GGO4vkNQKkk/cE2FsxsWN/yRj4rYdjEBBX
0nAgYgdcpPYFrAaTZEXaIWSUuYApAUCisgZBuvCvCeA/bPWqn7UMfC2neqP/IsWU
2J6sdO5mT6sXD42KNboh16u7uVQZAgMBAAGjUDBOMB0GA1UdDgQWBBTmyhthLzbf
r1Ef9x2jiNNIBwXR1zAfBgNVHSMEGDAWgBS/OA48/vdXV0/0f3ydnsYB1Pou9jAM
BgNVHRMEBTADAQH/MA0GCSqGSIb3DQEBCwUAA4IBAQCy8RO3kzom9FdN6+tG1fwW
1EcRSH5IbVubOmqPAwf/K6357oeAXfsMjsoLG8jgvWlwLeW06ljuciUKJPtBERr0
LMKtrUGqnczxWQ/BnVXaMguriwafzeDUOhrNIsTUhogHegyp7IyX1i6rB2OTw2r7
PS5Be2qtFXQg8RXDBTcvUNEx9MBKLamhRfewMiY6AmvA5r5hosWzBzd1bvqHNUwR
qGNOEubA5tKG2ahgOaIFirw4IXIdQpA/nDf2lrEU/7xVyEvT5J1kPjS3oKYAE7O4
5U6gkbIBKW3xg4tcaECU9c2Qw685WyWmU6gYitfK8/6td1jtrYCLuJMYU1tMixug
-----END CERTIFICATE-----
