Certificate:
    Data:
        Version: 3 (0x2)
        Serial Number: 1041 (0x411)
    Signature Algorithm: sha256WithRSAEncryption
        Issuer: C=US, ST=CO, O=CA1, OU=Infosec, CN=ca1.nothing.org/emailAddress=joe@ca1.nothing.org
        Validity
            Not Before: Sep  8 13:52:20 2016 GMT
            Not After : Sep  6 13:52:20 2026 GMT
        Subject: C=US, ST=CO, O=CA2, OU=Infosec, CN=ca2.nothing.org/emailAddress=joe@ca2.nothing.org
        Subject Public Key Info:
            Public Key Algorithm: rsaEncryption
                Public-Key: (2048 bit)
                Modulus:
                    00:cd:6b:77:ea:d5:07:59:8b:7a:77:02:43:86:ab:
                    ca:40:3c:35:22:3a:03:8e:68:ef:cf:07:a3:b1:79:
                    93:52:b7:fc:6e:14:9c:b3:d8:ee:44:81:06:75:44:
                    c1:53:53:f3:e2:84:02:94:7c:d3:1d:6b:1e:01:2f:
                    b5:51:54:7f:7a:56:d6:a3:62:3f:d6:39:06:32:37:
                    c8:d2:4c:fe:6b:2c:b0:73:fe:ed:5a:ca:95:48:fb:
                    e4:dc:95:8c:24:d9:bf:09:80:ec:44:bd:c9:9c:32:
                    05:df:4a:07:db:82:ec:47:ac:8a:d0:28:f4:14:0d:
                    53:b9:e9:dc:4c:b4:d4:f0:82:f1:77:3c:30:35:5b:
                    07:c2:94:b9:8d:08:d0:4e:55:3a:e3:c5:3f:7b:d7:
                    a4:9e:ca:11:68:ec:b4:1a:25:8c:4e:fd:4c:76:db:
                    c4:43:5d:bb:b8:6d:2d:f6:b8:09:fa:f4:d6:38:05:
                    8c:15:5e:87:4f:78:ae:1c:73:56:da:14:63:78:52:
                    14:bf:11:93:ae:a9:ae:33:d3:a3:38:20:22:21:dc:
                    ea:7a:22:dc:3b:e3:90:e8:e9:41:7d:09:90:a9:b3:
                    ca:99:69:ee:8f:a6:9c:bb:44:dd:62:08:08:2f:23:
                    59:f0:e3:dd:77:c7:f9:15:83:dc:62:ac:3a:2d:08:
                    e6:f5
                Exponent: 65537 (0x10001)
        X509v3 extensions:
            X509v3 Subject Key Identifier: 
                BF:38:0E:3C:FE:F7:57:57:4F:F4:7F:7C:9D:9E:C6:01:D4:FA:2E:F6
            X509v3 Authority Key Identifier: 
                keyid:FE:6C:E4:EA:A9:07:89:36:C0:97:D7:1F:07:74:38:C9:88:F9:D0:8C

            X509v3 Basic Constraints: 
                CA:TRUE
    Signature Algorithm: sha256WithRSAEncryption
         6c:56:ce:81:71:e0:3b:67:10:cd:ab:75:d7:7f:57:fd:a7:53:
         88:38:26:82:11:48:43:1e:3b:1a:08:f5:6a:ae:df:30:98:7f:
         ea:97:d3:3b:b9:ae:e4:6d:98:2b:23:71:9e:9a:1b:4e:ff:b7:
         83:43:43:8a:8c:60:9e:13:13:eb:6c:d8:23:b5:4e:8c:0d:91:
         99:ff:af:b9:d7:cb:77:4b:f8:3f:dc:29:f3:92:b9:f8:61:0e:
         a4:0b:51:8d:d1:95:29:82:64:55:26:39:dc:d6:8a:5f:11:ec:
         d0:29:b7:bb:b7:52:46:84:0f:f8:a3:1e:f0:61:22:9c:fd:11:
         de:54:da:8b:73:ee:d3:22:48:1e:41:86:c5:25:9f:47:ee:88:
         28:76:74:e5:d7:bd:c9:0c:c5:4f:a3:50:21:11:80:d4:be:84:
         64:9d:6d:3f:21:ff:28:58:9b:8f:30:c6:61:24:eb:1a:79:27:
         b2:f1:42:68:5a:ea:06:91:a2:51:ea:f5:6b:50:a0:48:93:9c:
         96:22:1a:b9:ca:fc:fd:0b:69:97:ed:95:e4:c7:08:b0:09:f6:
         a7:3d:c9:b6:e9:29:91:78:ef:fd:37:90:af:19:d9:50:eb:2b:
         d2:57:d2:25:5b:09:b0:64:ad:7a:68:2b:61:6d:57:46:c9:3a:
         00:a7:e1:6b
-----BEGIN CERTIFICATE-----
MIIDvDCCAqSgAwIBAgICBBEwDQYJKoZIhvcNAQELBQAweDELMAkGA1UEBhMCVVMx
CzAJBgNVBAgMAkNPMQwwCgYDVQQKDANDQTExEDAOBgNVBAsMB0luZm9zZWMxGDAW
BgNVBAMMD2NhMS5ub3RoaW5nLm9yZzEiMCAGCSqGSIb3DQEJARYTam9lQGNhMS5u
b3RoaW5nLm9yZzAeFw0xNjA5MDgxMzUyMjBaFw0yNjA5MDYxMzUyMjBaMHgxCzAJ
BgNVBAYTAlVTMQswCQYDVQQIDAJDTzEMMAoGA1UECgwDQ0EyMRAwDgYDVQQLDAdJ
bmZvc2VjMRgwFgYDVQQDDA9jYTIubm90aGluZy5vcmcxIjAgBgkqhkiG9w0BCQEW
E2pvZUBjYTIubm90aGluZy5vcmcwggEiMA0GCSqGSIb3DQEBAQUAA4IBDwAwggEK
AoIBAQDNa3fq1QdZi3p3AkOGq8pAPDUiOgOOaO/PB6OxeZNSt/xuFJyz2O5EgQZ1
RMFTU/PihAKUfNMdax4BL7VRVH96VtajYj/WOQYyN8jSTP5rLLBz/u1aypVI++Tc
lYwk2b8JgOxEvcmcMgXfSgfbguxHrIrQKPQUDVO56dxMtNTwgvF3PDA1WwfClLmN
CNBOVTrjxT9716SeyhFo7LQaJYxO/Ux228RDXbu4bS32uAn69NY4BYwVXodPeK4c
c1baFGN4UhS/EZOuqa4z06M4ICIh3Op6Itw745Do6UF9CZCps8qZae6Pppy7RN1i
CAgvI1nw4913x/kVg9xirDotCOb1AgMBAAGjUDBOMB0GA1UdDgQWBBS/OA48/vdX
V0/0f3ydnsYB1Pou9jAfBgNVHSMEGDAWgBT+bOTqqQeJNsCX1x8HdDjJiPnQjDAM
BgNVHRMEBTADAQH/MA0GCSqGSIb3DQEBCwUAA4IBAQBsVs6BceA7ZxDNq3XXf1f9
p1OIOCaCEUhDHjsaCPVqrt8wmH/ql9M7ua7kbZgrI3GemhtO/7eDQ0OKjGCeExPr
bNgjtU6MDZGZ/6+518t3S/g/3Cnzkrn4YQ6kC1GN0ZUpgmRVJjnc1opfEezQKbe7
t1JGhA/4ox7wYSKc/RHeVNqLc+7TIkgeQYbFJZ9H7ogodnTl173JDMVPo1AhEYDU
voRknW0/If8oWJuPMMZhJOsaeSey8UJoWuoGkaJR6vVrUKBIk5yWIhq5yvz9C2mX
7ZXkxwiwCfanPcm26SmReO/9N5CvGdlQ6yvSV9IlWwmwZK16aCthbVdGyToAp+Fr
-----END CERTIFICATE-----
