Certificate:
    Data:
        Version: 3 (0x2)
        Serial Number: 1040 (0x410)
    Signature Algorithm: sha256WithRSAEncryption
        Issuer: C=US, ST=NY, L=New York, O=ACVPOrg, OU=Dev, CN=localhost
        Validity
            Not Before: Sep  8 13:49:55 2016 GMT
            Not After : Sep  6 13:49:55 2026 GMT
        Subject: C=US, ST=CO, O=CA1, OU=Infosec, CN=ca1.nothing.org/emailAddress=joe@ca1.nothing.org
        Subject Public Key Info:
            Public Key Algorithm: rsaEncryption
                Public-Key: (2048 bit)
                Modulus:
                    00:ac:b9:db:71:87:5a:9b:c0:00:00:16:54:63:c6:
                    ed:f4:8a:76:07:71:65:80:12:dc:a4:86:2b:75:da:
                    05:d6:ca:1a:24:81:2e:c7:6f:bc:4f:eb:9d:75:70:
                    99:7e:db:c8:97:b4:fc:af:6c:a5:d2:3d:8e:8d:91:
                    f2:d3:3a:8a:1b:28:33:18:5d:cb:59:b1:f6:ed:17:
                    a3:fe:14:69:6f:71:5e:cd:88:22:ef:ca:86:7d:8d:
                    14:b9:f3:8e:57:09:4f:13:4c:e9:7e:c9:03:33:14:
                    98:87:f3:9f:bf:cd:b9:57:fb:93:c1:d0:e1:18:55:
                    44:43:96:0d:e3:1f:ee:ff:86:70:47:e0:57:21:bb:
                    b3:a6:a9:74:9f:5b:6c:1f:e4:eb:b3:3a:b3:5a:61:
                    a0:f3:d0:31:ef:30:72:4d:35:34:f9:08:f0:83:8c:
                    6f:ff:1e:72:63:ef:f3:56:22:6e:27:5b:9f:06:99:
                    33:26:21:64:e8:65:e6:98:ea:87:5c:d9:f1:97:fe:
                    0f:ca:97:d9:cd:a0:08:78:f5:f4:2b:44:28:4b:a0:
                    b2:d0:92:fe:44:ef:99:e1:7e:66:fa:7b:39:d0:b4:
                    cc:eb:33:97:f1:66:b2:1f:37:4f:0d:46:a8:e5:ab:
                    af:5f:a4:79:d4:69:f4:2d:a9:09:ca:e1:52:4f:00:
                    57:b3
                Exponent: 65537 (0x10001)
        X509v3 extensions:
            X509v3 Subject Key Identifier: 
                FE:6C:E4:EA:A9:07:89:36:C0:97:D7:1F:07:74:38:C9:88:F9:D0:8C
            X509v3 Authority Key Identifier: 
                keyid:00:27:10:D6:A5:40:47:B3:0C:B7:B5:8C:62:EE:E3:D5:C6:B3:1E:4C

            X509v3 Basic Constraints: 
                CA:TRUE
    Signature Algorithm: sha256WithRSAEncryption
         ce:1b:de:77:27:21:cd:db:a4:75:c7:ca:9f:4e:25:76:b7:41:
         b7:60:6f:f6:9a:cd:ac:99:06:71:c1:c2:a8:87:38:01:61:a8:
         c7:d4:00:2b:1a:95:02:e7:a0:5e:6b:d5:4d:41:5b:60:ba:31:
         11:1d:61:6a:a3:d4:43:4a:4d:29:c0:cd:43:b7:7d:2a:5a:2e:
         98:eb:35:cd:d3:79:e1:8b:39:86:ed:2c:94:07:a5:59:cd:dc:
         b9:cb:9f:ef:00:4a:bf:b7:78:c3:0a:25:60:2f:16:8a:bf:fb:
         30:31:00:d7:67:b4:53:e6:05:7a:f4:c8:65:90:09:f0:44:ef:
         32:b5:ce:a2:8e:c4:48:a7:2f:76:9c:f4:bc:1c:7e:ee:bd:b2:
         23:a2:d4:19:62:fc:96:0a:34:0c:f6:62:08:59:45:2d:5b:67:
         93:5c:fb:0e:8c:2e:73:b4:da:90:72:35:2a:06:0a:ab:4a:82:
         ae:ec:7f:cf:d0:d4:8b:11:09:f6:16:e1:c9:50:93:51:01:cd:
         c0:08:73:a7:31:ac:39:ad:fb:2d:8e:6b:56:80:7f:e5:44:74:
         b4:44:1f:35:b5:72:ed:09:7d:88:71:37:a2:67:fe:66:1c:e6:
         ac:99:c8:17:e4:df:ab:43:68:4b:4c:65:7a:2e:59:c1:cb:67:
         b6:0c:50:35
-----BEGIN CERTIFICATE-----
MIIDpTCCAo2gAwIBAgICBBAwDQYJKoZIhvcNAQELBQAwYTELMAkGA1UEBhMCVVMx
CzAJBgNVBAgMAk5ZMREwDwYDVQQHDAhOZXcgWW9yazEQMA4GA1UECgwHQUNWUE9y
ZzEMMAoGA1UECwwDRGV2MRIwEAYDVQQDDAlsb2NhbGhvc3QwHhcNMTYwOTA4MTM0
OTU1WhcNMjYwOTA2MTM0OTU1WjB4MQswCQYDVQQGEwJVUzELMAkGA1UECAwCQ08x
DDAKBgNVBAoMA0NBMTEQMA4GA1UECwwHSW5mb3NlYzEYMBYGA1UEAwwPY2ExLm5v
dGhpbmcub3JnMSIwIAYJKoZIhvcNAQkBFhNqb2VAY2ExLm5vdGhpbmcub3JnMIIB
IjANBgkqhkiG9w0BAQEFAAOCAQ8AMIIBCgKCAQEArLnbcYdam8AAABZUY8bt9Ip2
B3FlgBLcpIYrddoF1soaJIEux2+8T+uddXCZftvIl7T8r2yl0j2OjZHy0zqKGygz
GF3LWbH27Rej/hRpb3FezYgi78qGfY0UufOOVwlPE0zpfskDMxSYh/Ofv825V/uT
wdDhGFVEQ5YN4x/u/4ZwR+BXIbuzpql0n1tsH+TrszqzWmGg89Ax7zByTTU0+Qjw
g4xv/x5yY+/zViJuJ1ufBpkzJiFk6GXmmOqHXNnxl/4PypfZzaAIePX0K0QoS6Cy
0JL+RO+Z4X5m+ns50LTM6zOX8WayHzdPDUao5auvX6R51Gn0LakJyuFSTwBXswID
AQABo1AwTjAdBgNVHQ4EFgQU/mzk6qkHiTbAl9cfB3Q4yYj50IwwHwYDVR0jBBgw
FoAUACcQ1qVAR7MMt7WMYu7j1cazHkwwDAYDVR0TBAUwAwEB/zANBgkqhkiG9w0B
AQsFAAOCAQEAzhvedychzdukdcfKn04ldrdBt2Bv9prNrJkGccHCqIc4AWGox9QA
KxqVAuegXmvVTUFbYLoxER1haqPUQ0pNKcDNQ7d9KloumOs1zdN54Ys5hu0slAel
Wc3cucuf7wBKv7d4wwolYC8Wir/7MDEA12e0U+YFevTIZZAJ8ETvMrXOoo7ESKcv
dpz0vBx+7r2yI6LUGWL8lgo0DPZiCFlFLVtnk1z7Dowuc7TakHI1KgYKq0qCrux/
z9DUixEJ9hbhyVCTUQHNwAhzpzGsOa37LY5rVoB/5UR0tEQfNbVy7Ql9iHE3omf+
ZhzmrJnIF+Tfq0NoS0xlei5ZwctntgxQNQ==
-----END CERTIFICATE-----
