Certificate:
    Data:
        Version: 3 (0x2)
        Serial Number: 1045 (0x415)
    Signature Algorithm: sha256WithRSAEncryption
        Issuer: C=US, ST=CO, O=CA4, OU=Infosec, CN=ca4.nothing.org/emailAddress=joe@ca4.nothing.org
        Validity
            Not Before: Sep  8 14:01:50 2016 GMT
            Not After : Sep  6 14:01:50 2026 GMT
        Subject: C=US, ST=CO, O=CA5, OU=Infosec, CN=ca5.nothing.org/emailAddress=joe@ca5.nothing.org
        Subject Public Key Info:
            Public Key Algorithm: rsaEncryption
                Public-Key: (2048 bit)
                Modulus:
                    00:d2:29:fd:f8:6d:07:62:cc:84:af:17:ef:af:fb:
                    2f:bf:71:d9:81:9f:29:76:ea:9d:90:09:1e:5e:a3:
                    ee:58:a7:b8:68:fd:e0:51:a0:eb:11:16:1c:ed:1c:
                    76:4c:c9:cb:6e:0d:c5:73:8c:5f:e3:01:a0:32:5e:
                    b1:5b:b1:40:22:65:44:88:70:3e:2d:8a:42:30:a5:
                    13:0a:fa:52:34:15:a9:ac:64:8a:84:7e:d8:cf:62:
                    69:4b:ee:34:a3:af:a5:97:64:bd:86:16:45:0d:53:
                    14:84:cf:04:91:ea:7d:f4:dd:0c:98:57:a8:da:1f:
                    05:cc:c0:90:b2:3e:82:ba:94:cf:01:2c:a2:42:9a:
                    f3:d5:bf:3b:28:48:32:67:d9:df:f3:cc:27:fc:15:
                    e3:cd:b0:6c:75:6b:d1:d8:c1:ff:cf:93:d7:0a:a6:
                    1c:5c:dd:a2:0f:bb:aa:ec:63:41:af:6b:a3:6c:85:
                    1d:0b:82:79:da:50:0a:91:03:bd:90:37:ff:24:91:
                    54:9a:9d:b0:eb:c4:d4:25:4c:7c:de:55:3b:55:9a:
                    cc:c3:12:86:0a:9a:b3:8f:1a:5e:80:a6:e8:42:ce:
                    d5:72:c6:2f:e5:22:f9:0a:ac:a9:ce:39:9f:cc:64:
                    bd:dd:49:f3:ec:0f:31:4a:96:fc:a9:7b:f7:10:66:
                    b9:55
                Exponent: 65537 (0x10001)
        X509v3 extensions:
            X509v3 Subject Key Identifier: 
                06:41:71:83:1A:22:56:EE:EE:D3:F4:74:62:5B:1C:3B:B9:2E:02:49
            X509v3 Authority Key Identifier: 
                keyid:8B:85:F0:DA:DE:B4:A6:E4:DD:93:12:80:38:D0:D4:A9:6B:C8:D1:1F

            X509v3 Basic Constraints: 
                CA:TRUE
    Signature Algorithm: sha256WithRSAEncryption
         65:1b:a4:19:da:c3:ff:47:a8:93:99:2e:43:b5:23:28:44:f2:
         c2:0f:ac:b1:52:11:4e:c8:2a:ca:95:60:ec:e4:c1:cd:7e:88:
         ba:89:4b:0c:7d:90:e9:d7:01:f1:20:ca:a7:b3:fd:8b:2e:95:
         a2:3d:3b:64:30:f0:10:ca:17:54:46:39:cd:34:b6:91:90:4c:
         96:f7:4b:91:7d:c7:de:a1:22:a5:58:02:fc:55:72:01:5c:2f:
         b6:c5:66:a7:cf:36:0e:61:98:ba:d7:16:e6:85:a1:41:f1:85:
         97:2f:63:6a:e1:05:5d:6e:1c:f3:37:5c:81:df:9a:30:ad:06:
         67:df:56:1d:6d:7d:35:ef:9e:33:02:78:5c:fa:d6:5d:ef:77:
         80:24:40:93:f6:45:64:b8:f2:b4:1f:69:7f:a8:61:46:38:dc:
         73:c9:b6:9b:c1:3a:66:c6:3b:5d:12:d8:dc:fe:2a:17:ea:df:
         75:12:2c:c8:e4:ab:59:60:94:e6:f5:45:cf:31:61:fb:c9:f2:
         6a:59:f1:33:4e:79:65:d7:54:f0:bf:fa:2e:d8:f8:77:e4:12:
         04:63:7b:f6:ea:d1:76:c1:c4:52:46:7e:62:63:ab:41:34:5b:
         b1:65:71:2c:c9:e9:03:8e:30:2e:60:24:cb:db:51:5c:a7:24:
         a6:4d:b6:de
-----BEGIN CERTIFICATE-----
MIIDvDCCAqSgAwIBAgICBBUwDQYJKoZIhvcNAQELBQAweDELMAkGA1UEBhMCVVMx
CzAJBgNVBAgMAkNPMQwwCgYDVQQKDANDQTQxEDAOBgNVBAsMB0luZm9zZWMxGDAW
BgNVBAMMD2NhNC5ub3RoaW5nLm9yZzEiMCAGCSqGSIb3DQEJARYTam9lQGNhNC5u
b3RoaW5nLm9yZzAeFw0xNjA5MDgxNDAxNTBaFw0yNjA5MDYxNDAxNTBaMHgxCzAJ
BgNVBAYTAlVTMQswCQYDVQQIDAJDTzEMMAoGA1UECgwDQ0E1MRAwDgYDVQQLDAdJ
bmZvc2VjMRgwFgYDVQQDDA9jYTUubm90aGluZy5vcmcxIjAgBgkqhkiG9w0BCQEW
E2pvZUBjYTUubm90aGluZy5vcmcwggEiMA0GCSqGSIb3DQEBAQUAA4IBDwAwggEK
AoIBAQDSKf34bQdizISvF++v+y+/cdmBnyl26p2QCR5eo+5Yp7ho/eBRoOsRFhzt
HHZMyctuDcVzjF/jAaAyXrFbsUAiZUSIcD4tikIwpRMK+lI0FamsZIqEftjPYmlL
7jSjr6WXZL2GFkUNUxSEzwSR6n303QyYV6jaHwXMwJCyPoK6lM8BLKJCmvPVvzso
SDJn2d/zzCf8FePNsGx1a9HYwf/Pk9cKphxc3aIPu6rsY0Gva6NshR0LgnnaUAqR
A72QN/8kkVSanbDrxNQlTHzeVTtVmszDEoYKmrOPGl6ApuhCztVyxi/lIvkKrKnO
OZ/MZL3dSfPsDzFKlvype/cQZrlVAgMBAAGjUDBOMB0GA1UdDgQWBBQGQXGDGiJW
7u7T9HRiWxw7uS4CSTAfBgNVHSMEGDAWgBSLhfDa3rSm5N2TEoA40NSpa8jRHzAM
BgNVHRMEBTADAQH/MA0GCSqGSIb3DQEBCwUAA4IBAQBlG6QZ2sP/R6iTmS5DtSMo
RPLCD6yxUhFOyCrKlWDs5MHNfoi6iUsMfZDp1wHxIMqns/2LLpWiPTtkMPAQyhdU
RjnNNLaRkEyW90uRfcfeoSKlWAL8VXIBXC+2xWanzzYOYZi61xbmhaFB8YWXL2Nq
4QVdbhzzN1yB35owrQZn31YdbX01754zAnhc+tZd73eAJECT9kVkuPK0H2l/qGFG
ONxzybabwTpmxjtdEtjc/ioX6t91EizI5KtZYJTm9UXPMWH7yfJqWfEzTnll11Tw
v/ou2Ph35BIEY3v26tF2wcRSRn5iY6tBNFuxZXEsyekDjjAuYCTL21FcpySmTbbe
-----END CERTIFICATE-----
