Certificate:
    Data:
        Version: 3 (0x2)
        Serial Number: 1039 (0x40f)
    Signature Algorithm: sha256WithRSAEncryption
        Issuer: C=US, ST=NY, L=New York, O=ACVPOrg, OU=Dev, CN=localhost
        Validity
            Not Before: Sep  7 17:57:31 2016 GMT
            Not After : Sep  5 17:57:31 2026 GMT
        Subject: C=US, ST=OH, O=ACVP company, OU=Test, CN=127.0.0.1
        Subject Public Key Info:
            Public Key Algorithm: rsaEncryption
                Public-Key: (2048 bit)
                Modulus:
                    00:b2:47:df:eb:81:06:fb:e8:83:b3:90:32:d9:83:
                    e8:3e:50:4c:a8:4a:27:d5:ff:43:51:46:6e:cd:91:
                    65:49:26:2b:49:0d:59:3d:0a:b0:01:15:66:dd:2e:
                    97:ac:c1:ad:5d:40:2c:c0:09:48:54:77:8b:09:42:
                    ee:7f:f6:a0:2b:43:e8:b0:a0:06:09:58:51:8d:bc:
                    13:21:86:57:b7:4a:d8:e5:42:e8:d8:92:a1:76:87:
                    d4:a6:66:1a:77:da:87:a1:56:14:d9:43:f9:45:8a:
                    b0:91:bb:ef:59:1e:b6:05:f3:30:28:99:bf:81:89:
                    08:4c:2b:7a:bb:0e:24:33:3b:03:59:87:32:17:22:
                    a0:2a:e8:4b:35:5e:f6:81:8c:32:21:63:b1:e1:3a:
                    7e:a7:a6:ba:f3:a3:24:2e:22:82:8c:de:52:b3:19:
                    bb:4e:13:87:6a:30:df:8e:4d:84:6e:9a:2d:de:ba:
                    e8:b9:25:48:ee:d6:a6:74:49:a1:b0:69:e4:e8:3e:
                    21:46:c2:1a:1c:74:e0:cf:89:89:24:65:aa:14:ca:
                    c7:d7:2c:e7:77:ba:6f:8b:2a:9f:e5:e6:18:cd:52:
                    72:bf:5f:04:25:6e:e2:0a:a9:40:2a:58:f4:35:5a:
                    c4:86:5b:b1:13:df:6a:70:0f:2c:bb:1b:dd:b7:fc:
                    8a:61
                Exponent: 65537 (0x10001)
        X509v3 extensions:
            X509v3 Basic Constraints: 
                CA:FALSE
            X509v3 Key Usage: 
                Decipher Only
            Netscape Comment: 
                OpenSSL Generated Certificate
            X509v3 Subject Key Identifier: 
                D4:9F:AD:5F:3A:9A:7F:B4:F3:2E:44:D7:E4:C0:95:BB:42:EF:3B:0E
            X509v3 Authority Key Identifier: 
                keyid:00:27:10:D6:A5:40:47:B3:0C:B7:B5:8C:62:EE:E3:D5:C6:B3:1E:4C

    Signature Algorithm: sha256WithRSAEncryption
         e3:39:38:4c:14:ae:10:d7:1e:dc:e1:4a:de:2c:ef:f2:d1:6c:
         cf:a6:c2:20:f5:8f:79:48:64:c0:c8:ec:26:0e:42:24:5e:e0:
         c8:00:bd:8c:9a:5e:76:f4:b5:91:69:cd:16:59:4d:cd:62:6f:
         35:5e:28:2d:ed:df:4c:d9:03:78:22:3e:6c:bc:33:40:ba:81:
         36:65:aa:4b:5b:65:da:a6:d1:8a:cc:b2:3e:27:2d:b2:fd:93:
         68:0d:10:02:a7:39:d9:31:b0:70:c9:6a:59:de:f5:a7:4e:45:
         42:48:71:63:aa:8b:83:bf:2d:c1:9d:87:21:fc:17:48:01:c4:
         e1:da:8d:d2:a3:e4:e6:d0:be:8e:6d:31:43:f2:d4:19:6a:bb:
         11:bf:89:22:77:e2:39:94:62:c6:19:42:5d:c0:66:69:2d:f0:
         29:1f:5a:be:4c:ee:9a:67:d8:82:b6:2b:ce:9a:0d:2c:71:98:
         15:b7:e9:6d:f0:b8:ef:9a:f9:2c:61:c9:cf:32:b1:e8:68:5b:
         9b:21:25:90:37:58:ed:29:60:7d:e6:cc:10:4d:f7:c4:a1:8b:
         07:5d:7e:ca:67:02:ac:fa:63:ed:eb:5a:81:f6:31:f3:ef:37:
         ab:4f:24:ab:53:54:e3:a1:a2:9e:4a:ae:ed:94:89:4c:84:e9:
         26:0d:5b:d2
-----BEGIN CERTIFICATE-----
MIIDvDCCAqSgAwIBAgICBA8wDQYJKoZIhvcNAQELBQAwYTELMAkGA1UEBhMCVVMx
CzAJBgNVBAgMAk5ZMREwDwYDVQQHDAhOZXcgWW9yazEQMA4GA1UECgwHQUNWUE9y
ZzEMMAoGA1UECwwDRGV2MRIwEAYDVQQDDAlsb2NhbGhvc3QwHhcNMTYwOTA3MTc1
NzMxWhcNMjYwOTA1MTc1NzMxWjBUMQswCQYDVQQGEwJVUzELMAkGA1UECAwCT0gx
FTATBgNVBAoMDEFDVlAgY29tcGFueTENMAsGA1UECwwEVGVzdDESMBAGA1UEAwwJ
MTI3LjAuMC4xMIIBIjANBgkqhkiG9w0BAQEFAAOCAQ8AMIIBCgKCAQEAskff64EG
++iDs5Ay2YPoPlBMqEon1f9DUUZuzZFlSSYrSQ1ZPQqwARVm3S6XrMGtXUAswAlI
VHeLCULuf/agK0PosKAGCVhRjbwTIYZXt0rY5ULo2JKhdofUpmYad9qHoVYU2UP5
RYqwkbvvWR62BfMwKJm/gYkITCt6uw4kMzsDWYcyFyKgKuhLNV72gYwyIWOx4Tp+
p6a686MkLiKCjN5Ssxm7ThOHajDfjk2Ebpot3rrouSVI7tamdEmhsGnk6D4hRsIa
HHTgz4mJJGWqFMrH1yznd7pviyqf5eYYzVJyv18EJW7iCqlAKlj0NVrEhluxE99q
cA8suxvdt/yKYQIDAQABo4GKMIGHMAkGA1UdEwQCMAAwDAYDVR0PBAUDAwcAgDAs
BglghkgBhvhCAQ0EHxYdT3BlblNTTCBHZW5lcmF0ZWQgQ2VydGlmaWNhdGUwHQYD
VR0OBBYEFNSfrV86mn+08y5E1+TAlbtC7zsOMB8GA1UdIwQYMBaAFAAnENalQEez
DLe1jGLu49XGsx5MMA0GCSqGSIb3DQEBCwUAA4IBAQDjOThMFK4Q1x7c4UreLO/y
0WzPpsIg9Y95SGTAyOwmDkIkXuDIAL2Mml529LWRac0WWU3NYm81Xigt7d9M2QN4
Ij5svDNAuoE2ZapLW2XaptGKzLI+Jy2y/ZNoDRACpznZMbBwyWpZ3vWnTkVCSHFj
qouDvy3BnYch/BdIAcTh2o3So+Tm0L6ObTFD8tQZarsRv4kid+I5lGLGGUJdwGZp
LfApH1q+TO6aZ9iCtivOmg0scZgVt+lt8LjvmvksYcnPMrHoaFubISWQN1jtKWB9
5swQTffEoYsHXX7KZwKs+mPt61qB9jHz7zerTySrU1TjoaKeSq7tlIlMhOkmDVvS
-----END CERTIFICATE-----
