Certificate:
    Data:
        Version: 3 (0x2)
        Serial Number: 1049 (0x419)
    Signature Algorithm: sha256WithRSAEncryption
        Issuer: C=US, ST=NY, L=New York, O=ACVPOrg, OU=Dev, CN=localhost
        Validity
            Not Before: Sep  8 15:45:50 2016 GMT
            Not After : Sep  6 15:45:50 2026 GMT
        Subject: C=US, ST=CO, O=DC2, OU=Operations, CN=server.nothing.org/emailAddress=joe@ca7.nothing.org
        Subject Public Key Info:
            Public Key Algorithm: rsaEncryption
                Public-Key: (2048 bit)
                Modulus:
                    00:94:f5:60:c6:12:02:b4:2a:10:7a:43:cc:6b:b5:
                    79:e0:12:36:03:fd:b4:7d:59:3d:66:f8:41:62:75:
                    35:56:60:b5:09:e6:cb:ed:04:a3:5c:04:1a:34:5b:
                    47:ec:7c:b5:70:57:f3:ef:9f:12:2e:b9:93:d0:05:
                    aa:c2:2b:79:0d:cb:8a:f9:46:91:0a:9c:c1:84:42:
                    ad:4b:2d:bd:2f:b6:8b:d0:79:19:35:93:73:89:67:
                    9c:a2:96:10:e2:55:d8:7a:50:7c:07:7d:2c:ae:29:
                    d5:80:a0:68:5b:e0:07:26:9e:1a:00:18:db:94:58:
                    b3:88:0c:cf:38:dc:b0:a8:af:03:23:fb:de:e3:53:
                    67:9d:c1:7b:74:a2:d1:8e:e1:e8:a8:29:49:48:06:
                    73:d7:ed:ad:e5:b3:f6:84:93:f0:7f:15:c2:d0:16:
                    46:12:e3:5e:d1:02:da:2d:f0:4a:5e:30:26:94:3f:
                    ac:a3:97:1d:2e:56:a2:51:a1:2b:4c:79:d8:1b:22:
                    83:72:65:f9:c9:b0:e1:9a:db:dc:b0:b5:6b:7a:f8:
                    d6:85:c8:71:e7:be:02:f7:c2:04:f7:25:09:d6:ad:
                    93:50:c3:a8:3a:ba:28:ec:78:87:d8:e0:8b:dc:fe:
                    3d:51:72:1e:a6:b4:3b:1c:f5:1e:93:fa:59:ea:54:
                    3c:21
                Exponent: 65537 (0x10001)
        X509v3 extensions:
            X509v3 Basic Constraints: 
                CA:FALSE
            X509v3 Key Usage: 
                Digital Signature, Non Repudiation, Key Encipherment
            Netscape Comment: 
                OpenSSL Generated Certificate
            X509v3 Subject Key Identifier: 
                C7:8A:49:1B:87:76:04:89:27:6A:44:27:F6:17:44:B8:9B:DC:72:DC
            X509v3 Authority Key Identifier: 
                keyid:00:27:10:D6:A5:40:47:B3:0C:B7:B5:8C:62:EE:E3:D5:C6:B3:1E:4C

    Signature Algorithm: sha256WithRSAEncryption
         12:d3:77:82:f8:8f:14:de:12:ce:0a:7e:15:d1:f4:d0:7f:b9:
         a1:ff:eb:33:a5:38:8c:f3:a5:96:b4:16:e5:bc:93:3a:e6:79:
         3b:ac:6b:15:ed:b7:f9:f2:ea:7d:12:74:90:ea:f5:b6:85:ab:
         d5:fa:a1:be:9f:15:0f:6d:78:68:5b:f9:47:12:b6:e0:0d:ca:
         7d:ab:0d:6f:fa:7c:88:00:ad:dd:03:73:b0:97:36:18:74:78:
         1c:fd:5e:ac:09:f5:fb:3d:31:f2:be:0c:9b:ad:0a:d9:23:e8:
         44:ea:8f:d4:bc:39:1c:c0:6c:66:fa:c6:ea:20:c7:d7:bd:d9:
         ad:09:04:8c:e3:86:b0:53:c6:1a:3b:c8:6b:bd:f0:b1:c9:e1:
         b9:61:a3:d7:73:5d:d0:23:5c:0b:ff:13:3e:26:fa:2d:33:69:
         d4:94:3c:5a:9a:6d:9f:c8:21:55:ab:4e:e4:6e:94:ce:47:9e:
         53:91:d0:46:e5:a1:3a:de:39:e7:1c:10:82:87:33:e3:cc:97:
         b4:ca:d8:ef:87:8f:c5:64:dc:16:54:66:30:db:db:1e:66:db:
         f0:0a:be:e8:87:74:bb:fa:83:57:a0:e6:0f:c7:0b:95:c5:d5:
         6b:92:bd:5b:3e:bf:ca:b4:b0:5d:53:97:f9:33:5d:98:7b:b2:
         73:62:01:3c
-----BEGIN CERTIFICATE-----
MIID5TCCAs2gAwIBAgICBBkwDQYJKoZIhvcNAQELBQAwYTELMAkGA1UEBhMCVVMx
CzAJBgNVBAgMAk5ZMREwDwYDVQQHDAhOZXcgWW9yazEQMA4GA1UECgwHQUNWUE9y
ZzEMMAoGA1UECwwDRGV2MRIwEAYDVQQDDAlsb2NhbGhvc3QwHhcNMTYwOTA4MTU0
NTUwWhcNMjYwOTA2MTU0NTUwWjB+MQswCQYDVQQGEwJVUzELMAkGA1UECAwCQ08x
DDAKBgNVBAoMA0RDMjETMBEGA1UECwwKT3BlcmF0aW9uczEbMBkGA1UEAwwSc2Vy
dmVyLm5vdGhpbmcub3JnMSIwIAYJKoZIhvcNAQkBFhNqb2VAY2E3Lm5vdGhpbmcu
b3JnMIIBIjANBgkqhkiG9w0BAQEFAAOCAQ8AMIIBCgKCAQEAlPVgxhICtCoQekPM
a7V54BI2A/20fVk9ZvhBYnU1VmC1CebL7QSjXAQaNFtH7Hy1cFfz758SLrmT0AWq
wit5DcuK+UaRCpzBhEKtSy29L7aL0HkZNZNziWecopYQ4lXYelB8B30srinVgKBo
W+AHJp4aABjblFiziAzPONywqK8DI/ve41NnncF7dKLRjuHoqClJSAZz1+2t5bP2
hJPwfxXC0BZGEuNe0QLaLfBKXjAmlD+so5cdLlaiUaErTHnYGyKDcmX5ybDhmtvc
sLVrevjWhchx574C98IE9yUJ1q2TUMOoOroo7HiH2OCL3P49UXIeprQ7HPUek/pZ
6lQ8IQIDAQABo4GJMIGGMAkGA1UdEwQCMAAwCwYDVR0PBAQDAgXgMCwGCWCGSAGG
+EIBDQQfFh1PcGVuU1NMIEdlbmVyYXRlZCBDZXJ0aWZpY2F0ZTAdBgNVHQ4EFgQU
x4pJG4d2BIknakQn9hdEuJvcctwwHwYDVR0jBBgwFoAUACcQ1qVAR7MMt7WMYu7j
1cazHkwwDQYJKoZIhvcNAQELBQADggEBABLTd4L4jxTeEs4KfhXR9NB/uaH/6zOl
OIzzpZa0FuW8kzrmeTusaxXtt/ny6n0SdJDq9baFq9X6ob6fFQ9teGhb+UcStuAN
yn2rDW/6fIgArd0Dc7CXNhh0eBz9XqwJ9fs9MfK+DJutCtkj6ETqj9S8ORzAbGb6
xuogx9e92a0JBIzjhrBTxho7yGu98LHJ4blho9dzXdAjXAv/Ez4m+i0zadSUPFqa
bZ/IIVWrTuRulM5HnlOR0EbloTreOeccEIKHM+PMl7TK2O+Hj8Vk3BZUZjDb2x5m
2/AKvuiHdLv6g1eg5g/HC5XF1WuSvVs+v8q0sF1Tl/kzXZh7snNiATw=
-----END CERTIFICATE-----
