Certificate:
    Data:
        Version: 3 (0x2)
        Serial Number: 1036 (0x40c)
    Signature Algorithm: sha256WithRSAEncryption
        Issuer: C=US, ST=NY, L=New York, O=ACVPOrg, OU=Dev, CN=localhost
        Validity
            Not Before: Sep  7 16:57:08 2016 GMT
            Not After : Sep  5 16:57:08 2026 GMT
        Subject: C=US, ST=CA, O=ACVP org, OU=Test, CN=127.0.0.1
        Subject Public Key Info:
            Public Key Algorithm: rsaEncryption
                Public-Key: (2048 bit)
                Modulus:
                    00:a9:e7:9b:b5:18:71:14:9d:13:f0:4f:a8:fd:3a:
                    35:18:68:f0:22:6d:8a:1c:c0:f9:35:a0:99:30:14:
                    bd:2c:49:48:63:5b:fa:69:b4:ca:51:1d:8a:6a:cc:
                    eb:88:7e:56:ac:d7:2e:f0:92:85:5f:30:73:d4:35:
                    74:38:57:9b:d1:bd:87:b6:15:5c:c4:02:76:7a:90:
                    97:a6:44:eb:08:89:00:c0:01:8f:68:07:e9:e0:df:
                    bd:db:98:62:03:d7:a7:f4:65:7f:fd:2c:a6:58:6c:
                    83:5d:b9:f6:9a:c8:99:38:b3:45:a3:c0:2d:97:68:
                    58:ec:d9:92:b4:3d:6d:ca:e4:8c:23:2d:6a:db:a8:
                    39:4a:f9:cb:64:07:1d:ea:b6:34:bc:62:ea:e4:b1:
                    7d:cc:60:d8:91:3a:56:0c:15:55:6c:85:36:7f:43:
                    6f:10:25:31:77:71:2d:3e:c4:65:46:fb:38:62:ee:
                    e4:6b:e8:d3:ec:af:45:db:82:5b:fb:71:e0:c8:76:
                    69:1d:7f:fd:91:64:f7:84:91:1e:62:3e:26:40:c3:
                    4e:ef:4a:ac:2d:bf:69:4d:49:6b:75:21:4a:2e:6c:
                    18:c0:fb:7a:d6:e4:88:5c:26:59:14:60:c9:7b:41:
                    a7:5c:0e:a0:1f:42:0b:c4:6f:2e:9c:b3:1f:3c:f6:
                    b1:29
                Exponent: 65537 (0x10001)
        X509v3 extensions:
            X509v3 Basic Constraints: 
                CA:FALSE
            X509v3 Key Usage: 
                Digital Signature, Non Repudiation, Key Encipherment
    Signature Algorithm: sha256WithRSAEncryption
         54:c9:63:73:df:12:da:9e:ab:cd:b9:53:fa:2f:87:aa:40:4a:
         53:d5:a4:41:b1:c1:3a:95:39:2b:5f:cd:cc:15:7d:5b:b3:2b:
         74:9d:f0:18:e8:6a:88:b7:e0:1f:3a:6e:10:a3:df:a7:4c:05:
         ca:6e:f0:d5:68:c4:ca:3e:9b:57:b9:b5:af:ac:04:09:b6:a6:
         ad:92:96:13:dc:83:a5:d8:5f:58:17:37:08:4b:11:1b:cc:a7:
         46:5f:69:70:1a:9e:98:4a:9b:64:f4:ba:e0:d8:79:62:cf:c7:
         ce:18:88:53:3e:71:9d:90:fd:b0:8d:c8:a8:a7:eb:f1:19:02:
         52:4f:24:b5:63:ba:60:ec:a6:64:b0:fc:d6:c0:23:83:f8:dc:
         1d:b7:ed:70:ad:f7:f3:60:05:81:76:95:ee:53:08:08:45:0b:
         b8:18:6a:3e:4b:e8:b8:6e:db:68:8e:9d:7b:ba:7b:bc:8f:eb:
         7b:e2:c6:3b:be:12:e1:90:9b:9e:af:f7:56:6f:28:41:d5:83:
         b0:9c:98:2c:20:03:61:c1:b8:2c:44:84:c2:2c:bc:2c:fc:9a:
         51:74:d0:00:4c:eb:84:f9:6a:e5:71:14:d5:0e:be:8b:81:b2:
         e1:1f:95:25:5f:bf:fb:43:7c:73:7f:11:1f:0b:dc:30:21:29:
         f8:c3:b9:d6
-----BEGIN CERTIFICATE-----
MIIDRzCCAi+gAwIBAgICBAwwDQYJKoZIhvcNAQELBQAwYTELMAkGA1UEBhMCVVMx
CzAJBgNVBAgMAk5ZMREwDwYDVQQHDAhOZXcgWW9yazEQMA4GA1UECgwHQUNWUE9y
ZzEMMAoGA1UECwwDRGV2MRIwEAYDVQQDDAlsb2NhbGhvc3QwHhcNMTYwOTA3MTY1
NzA4WhcNMjYwOTA1MTY1NzA4WjBQMQswCQYDVQQGEwJVUzELMAkGA1UECAwCQ0Ex
ETAPBgNVBAoMCEFDVlAgb3JnMQ0wCwYDVQQLDARUZXN0MRIwEAYDVQQDDAkxMjcu
MC4wLjEwggEiMA0GCSqGSIb3DQEBAQUAA4IBDwAwggEKAoIBAQCp55u1GHEUnRPw
T6j9OjUYaPAibYocwPk1oJkwFL0sSUhjW/pptMpRHYpqzOuIflas1y7wkoVfMHPU
NXQ4V5vRvYe2FVzEAnZ6kJemROsIiQDAAY9oB+ng373bmGID16f0ZX/9LKZYbINd
ufaayJk4s0WjwC2XaFjs2ZK0PW3K5IwjLWrbqDlK+ctkBx3qtjS8YurksX3MYNiR
OlYMFVVshTZ/Q28QJTF3cS0+xGVG+zhi7uRr6NPsr0Xbglv7ceDIdmkdf/2RZPeE
kR5iPiZAw07vSqwtv2lNSWt1IUoubBjA+3rW5IhcJlkUYMl7QadcDqAfQgvEby6c
sx889rEpAgMBAAGjGjAYMAkGA1UdEwQCMAAwCwYDVR0PBAQDAgXgMA0GCSqGSIb3
DQEBCwUAA4IBAQBUyWNz3xLanqvNuVP6L4eqQEpT1aRBscE6lTkrX83MFX1bsyt0
nfAY6GqIt+AfOm4Qo9+nTAXKbvDVaMTKPptXubWvrAQJtqatkpYT3IOl2F9YFzcI
SxEbzKdGX2lwGp6YSptk9Lrg2Hliz8fOGIhTPnGdkP2wjciop+vxGQJSTyS1Y7pg
7KZksPzWwCOD+Nwdt+1wrffzYAWBdpXuUwgIRQu4GGo+S+i4bttojp17unu8j+t7
4sY7vhLhkJuer/dWbyhB1YOwnJgsIANhwbgsRITCLLws/JpRdNAATOuE+WrlcRTV
Dr6LgbLhH5UlX7/7Q3xzfxEfC9wwISn4w7nW
-----END CERTIFICATE-----
