Certificate:
    Data:
        Version: 3 (0x2)
        Serial Number: 1048 (0x418)
    Signature Algorithm: sha256WithRSAEncryption
        Issuer: C=US, ST=CO, O=CA7, OU=Infosec, CN=ca7.nothing.org/emailAddress=joe@ca7.nothing.org
        Validity
            Not Before: Sep  8 14:06:29 2016 GMT
            Not After : Sep  6 14:06:29 2026 GMT
        Subject: C=US, ST=NM, O=ServerFarm7, OU=Operations, CN=127.0.0.1/emailAddress=joe@ca7.nothing.org
        Subject Public Key Info:
            Public Key Algorithm: rsaEncryption
                Public-Key: (2048 bit)
                Modulus:
                    00:d9:64:c6:78:fc:ff:40:94:4d:af:d0:5f:90:1a:
                    92:9a:59:e6:84:fe:9f:d4:a3:45:d3:88:47:dd:0a:
                    bd:61:45:c6:f1:3f:02:b2:9f:df:20:e6:e5:59:42:
                    da:61:e0:2a:e5:77:fd:a6:bf:b9:71:6a:23:32:90:
                    73:fb:55:80:ef:c2:31:70:f7:7d:f6:55:85:a4:86:
                    c8:46:a4:4f:25:ce:fd:bd:3c:72:aa:c7:cc:3e:e9:
                    4e:df:07:07:36:36:05:f9:fd:13:36:1f:6c:f3:89:
                    67:7c:01:20:c1:8c:1b:2a:c7:b1:1b:86:72:73:73:
                    58:50:e7:d7:e6:aa:51:ca:2e:9c:9e:6a:76:5a:93:
                    9e:ab:c4:9e:0e:4d:8e:d1:8f:34:72:a9:9a:69:76:
                    14:fd:09:66:61:ad:67:4a:cc:4c:2f:9f:b3:f3:a1:
                    11:ee:dd:00:fe:29:8d:d1:5c:1b:b4:05:b9:92:4f:
                    0b:9d:a4:20:2e:45:0f:3a:0f:5e:57:d9:e8:7e:6a:
                    fa:65:5a:ef:b5:74:01:42:d8:34:59:37:f3:9c:58:
                    f2:9b:70:d1:f5:6b:39:cc:be:a8:cd:69:91:3b:5f:
                    60:5c:3f:05:36:95:e6:72:76:76:eb:12:1d:48:7f:
                    a1:6a:9f:c7:11:7e:c2:16:fd:e5:fe:ee:38:30:ba:
                    09:79
                Exponent: 65537 (0x10001)
        X509v3 extensions:
            X509v3 Basic Constraints: 
                CA:FALSE
            X509v3 Key Usage: 
                Digital Signature, Non Repudiation, Key Encipherment
            Netscape Comment: 
                OpenSSL Generated Certificate
            X509v3 Subject Key Identifier: 
                DF:2C:F3:B7:BC:B6:7B:D8:E6:02:95:C8:21:9A:48:25:25:27:01:0C
            X509v3 Authority Key Identifier: 
                keyid:40:67:D6:3A:B9:BB:D4:31:11:DD:99:AD:47:00:53:85:89:91:0A:AC

    Signature Algorithm: sha256WithRSAEncryption
         8e:d5:d2:3b:de:1f:7c:2f:81:13:8e:cf:93:1c:18:02:6b:31:
         2d:5e:33:2d:ee:78:46:77:a4:d7:2c:ed:c1:e2:a0:14:82:81:
         ed:e1:12:df:f8:a8:b1:eb:15:7d:b8:07:ef:29:db:2c:59:08:
         d9:31:6f:8b:20:58:4c:da:ff:52:10:17:81:9f:1c:e9:cc:8a:
         31:cc:4f:79:95:8d:64:4f:cf:cd:01:ac:b9:e1:4a:59:70:5d:
         27:fe:78:23:6e:2d:5f:6a:65:c1:27:12:25:48:b5:03:5a:4c:
         9f:b2:b2:26:38:c6:dc:0b:e1:fb:5c:0a:74:c8:7d:1e:e2:e3:
         d4:58:a7:2f:d8:4d:cd:ea:07:cf:c0:12:14:59:3b:4e:05:79:
         e8:4f:f3:c7:8d:ef:49:17:18:70:b8:85:41:26:99:16:3b:85:
         3e:0f:f4:60:49:6a:e0:f4:7e:df:65:99:b7:e4:88:41:b1:03:
         3a:57:3e:fc:97:c6:2c:cb:6a:e8:be:cd:2c:00:4b:e8:44:0c:
         fd:a5:1f:7f:cf:57:9a:e8:6e:3e:3d:99:c8:77:a2:18:52:bf:
         df:58:74:7b:0a:d6:2a:20:bc:3f:9e:e3:4d:d3:dc:ea:97:ec:
         aa:2c:6b:62:6c:45:73:f2:e1:00:1d:66:4f:38:f7:8c:00:fb:
         fa:1d:59:84
-----BEGIN CERTIFICATE-----
MIID+zCCAuOgAwIBAgICBBgwDQYJKoZIhvcNAQELBQAweDELMAkGA1UEBhMCVVMx
CzAJBgNVBAgMAkNPMQwwCgYDVQQKDANDQTcxEDAOBgNVBAsMB0luZm9zZWMxGDAW
BgNVBAMMD2NhNy5ub3RoaW5nLm9yZzEiMCAGCSqGSIb3DQEJARYTam9lQGNhNy5u
b3RoaW5nLm9yZzAeFw0xNjA5MDgxNDA2MjlaFw0yNjA5MDYxNDA2MjlaMH0xCzAJ
BgNVBAYTAlVTMQswCQYDVQQIDAJOTTEUMBIGA1UECgwLU2VydmVyRmFybTcxEzAR
BgNVBAsMCk9wZXJhdGlvbnMxEjAQBgNVBAMMCTEyNy4wLjAuMTEiMCAGCSqGSIb3
DQEJARYTam9lQGNhNy5ub3RoaW5nLm9yZzCCASIwDQYJKoZIhvcNAQEBBQADggEP
ADCCAQoCggEBANlkxnj8/0CUTa/QX5AakppZ5oT+n9SjRdOIR90KvWFFxvE/ArKf
3yDm5VlC2mHgKuV3/aa/uXFqIzKQc/tVgO/CMXD3ffZVhaSGyEakTyXO/b08cqrH
zD7pTt8HBzY2Bfn9EzYfbPOJZ3wBIMGMGyrHsRuGcnNzWFDn1+aqUcounJ5qdlqT
nqvEng5NjtGPNHKpmml2FP0JZmGtZ0rMTC+fs/OhEe7dAP4pjdFcG7QFuZJPC52k
IC5FDzoPXlfZ6H5q+mVa77V0AULYNFk385xY8ptw0fVrOcy+qM1pkTtfYFw/BTaV
5nJ2dusSHUh/oWqfxxF+whb95f7uODC6CXkCAwEAAaOBiTCBhjAJBgNVHRMEAjAA
MAsGA1UdDwQEAwIF4DAsBglghkgBhvhCAQ0EHxYdT3BlblNTTCBHZW5lcmF0ZWQg
Q2VydGlmaWNhdGUwHQYDVR0OBBYEFN8s87e8tnvY5gKVyCGaSCUlJwEMMB8GA1Ud
IwQYMBaAFEBn1jq5u9QxEd2ZrUcAU4WJkQqsMA0GCSqGSIb3DQEBCwUAA4IBAQCO
1dI73h98L4ETjs+THBgCazEtXjMt7nhGd6TXLO3B4qAUgoHt4RLf+Kix6xV9uAfv
KdssWQjZMW+LIFhM2v9SEBeBnxzpzIoxzE95lY1kT8/NAay54UpZcF0n/ngjbi1f
amXBJxIlSLUDWkyfsrImOMbcC+H7XAp0yH0e4uPUWKcv2E3N6gfPwBIUWTtOBXno
T/PHje9JFxhwuIVBJpkWO4U+D/RgSWrg9H7fZZm35IhBsQM6Vz78l8Ysy2rovs0s
AEvoRAz9pR9/z1ea6G4+PZnId6IYUr/fWHR7CtYqILw/nuNN09zql+yqLGtibEVz
8uEAHWZPOPeMAPv6HVmE
-----END CERTIFICATE-----
